target datalayout = "e-m:e-p270:32:32-p271:32:32-p272:64:64-i64:64-i128:128-f80:128-n8:16:32:64-S128"
target triple = "x86_64-pc-linux-gnu"

; Function Attrs: inlinehint nounwind uwtable
define internal ptr @DatumGetPointer(i64 noundef %0) #7 {
  %2 = alloca i64, align 8
  store i64 %0, ptr %2, align 8
  %3 = load i64, ptr %2, align 8
  %4 = inttoptr i64 %3 to ptr
  ret ptr %4
}

; Function Attrs: inlinehint nounwind uwtable
define internal i64 @PointerGetDatum(ptr noundef %0) #7 {
  %2 = alloca ptr, align 8
  store ptr %0, ptr %2, align 8
  %3 = load ptr, ptr %2, align 8
  %4 = ptrtoint ptr %3 to i64
  ret i64 %4
}

; Function Attrs: nounwind uwtable
define internal i64 @pg_parameter_aclmask(ptr noundef %0, i32 noundef %1, i64 noundef %2, i32 noundef %3) #0 {
  %5 = alloca i64, align 8
  %6 = alloca ptr, align 8
  %7 = alloca i32, align 4
  %8 = alloca i64, align 8
  %9 = alloca i32, align 4
  %10 = alloca i64, align 8
  %11 = alloca ptr, align 8
  %12 = alloca ptr, align 8
  %13 = alloca ptr, align 8
  %14 = alloca i32, align 4
  %15 = alloca i64, align 8
  %16 = alloca i8, align 1
  %17 = alloca ptr, align 8
  store ptr %0, ptr %6, align 8
  store i32 %1, ptr %7, align 4
  store i64 %2, ptr %8, align 8
  store i32 %3, ptr %9, align 4
  call void @llvm.lifetime.start.p0(i64 8, ptr %10) #9
  call void @llvm.lifetime.start.p0(i64 8, ptr %11) #9
  call void @llvm.lifetime.start.p0(i64 8, ptr %12) #9
  call void @llvm.lifetime.start.p0(i64 8, ptr %13) #9
  %18 = load i32, ptr %7, align 4
  %19 = call zeroext i1 @superuser_arg(i32 noundef %18)
  br i1 %19, label %20, label %22

20:                                               ; preds = %4
  %21 = load i64, ptr %8, align 8
  store i64 %21, ptr %5, align 8
  store i32 1, ptr %14, align 4
  br label %65

22:                                               ; preds = %4
  %23 = load ptr, ptr %6, align 8
  %24 = call ptr @convert_GUC_name_for_parameter_acl(ptr noundef %23)
  store ptr %24, ptr %11, align 8
  %25 = load ptr, ptr %11, align 8
  %26 = call ptr @cstring_to_text(ptr noundef %25)
  store ptr %26, ptr %12, align 8
  %27 = load ptr, ptr %12, align 8
  %28 = call i64 @PointerGetDatum(ptr noundef %27)
  %29 = call ptr @SearchSysCache1(i32 noundef 43, i64 noundef %28)
  store ptr %29, ptr %13, align 8
  %30 = load ptr, ptr %13, align 8
  %31 = icmp ne ptr %30, null
  br i1 %31, label %33, label %32

32:                                               ; preds = %22
  store i64 0, ptr %10, align 8
  br label %61

33:                                               ; preds = %22
  call void @llvm.lifetime.start.p0(i64 8, ptr %15) #9
  call void @llvm.lifetime.start.p0(i64 1, ptr %16) #9
  call void @llvm.lifetime.start.p0(i64 8, ptr %17) #9
  %34 = load ptr, ptr %13, align 8
  %35 = call i64 @SysCacheGetAttr(i32 noundef 43, ptr noundef %34, i16 noundef signext 3, ptr noundef %16)
  store i64 %35, ptr %15, align 8
  %36 = load i8, ptr %16, align 1, !range !4, !noundef !5
  %37 = trunc i8 %36 to i1
  br i1 %37, label %38, label %40

38:                                               ; preds = %33
  %39 = call ptr @acldefault(i32 noundef 27, i32 noundef 10)
  store ptr %39, ptr %17, align 8
  store i64 0, ptr %15, align 8
  br label %44

40:                                               ; preds = %33
  %41 = load i64, ptr %15, align 8
  %42 = call ptr @DatumGetPointer(i64 noundef %41)
  %43 = call ptr @pg_detoast_datum(ptr noundef %42)
  store ptr %43, ptr %17, align 8
  br label %44

44:                                               ; preds = %40, %38
  %45 = load ptr, ptr %17, align 8
  %46 = load i32, ptr %7, align 4
  %47 = load i64, ptr %8, align 8
  %48 = load i32, ptr %9, align 4
  %49 = call i64 @aclmask(ptr noundef %45, i32 noundef %46, i32 noundef 10, i64 noundef %47, i32 noundef %48)
  store i64 %49, ptr %10, align 8
  %50 = load ptr, ptr %17, align 8
  %51 = icmp ne ptr %50, null
  br i1 %51, label %52, label %59

52:                                               ; preds = %44
  %53 = load ptr, ptr %17, align 8
  %54 = load i64, ptr %15, align 8
  %55 = call ptr @DatumGetPointer(i64 noundef %54)
  %56 = icmp ne ptr %53, %55
  br i1 %56, label %57, label %59

57:                                               ; preds = %52
  %58 = load ptr, ptr %17, align 8
  call void @pfree(ptr noundef %58)
  br label %59

59:                                               ; preds = %57, %52, %44
  %60 = load ptr, ptr %13, align 8
  call void @ReleaseSysCache(ptr noundef %60)
  call void @llvm.lifetime.end.p0(i64 8, ptr %17) #9
  call void @llvm.lifetime.end.p0(i64 1, ptr %16) #9
  call void @llvm.lifetime.end.p0(i64 8, ptr %15) #9
  br label %61

61:                                               ; preds = %59, %32
  %62 = load ptr, ptr %11, align 8
  call void @pfree(ptr noundef %62)
  %63 = load ptr, ptr %12, align 8
  call void @pfree(ptr noundef %63)
  %64 = load i64, ptr %10, align 8
  store i64 %64, ptr %5, align 8
  store i32 1, ptr %14, align 4
  br label %65

65:                                               ; preds = %61, %20
  call void @llvm.lifetime.end.p0(i64 8, ptr %13) #9
  call void @llvm.lifetime.end.p0(i64 8, ptr %12) #9
  call void @llvm.lifetime.end.p0(i64 8, ptr %11) #9
  call void @llvm.lifetime.end.p0(i64 8, ptr %10) #9
  %66 = load i64, ptr %5, align 8
  ret i64 %66
}

; Function Attrs: nounwind uwtable
define dso_local i32 @pg_parameter_aclcheck(ptr noundef %0, i32 noundef %1, i64 noundef %2) #0 {
  %4 = alloca i32, align 4
  %5 = alloca ptr, align 8
  %6 = alloca i32, align 4
  %7 = alloca i64, align 8
  store ptr %0, ptr %5, align 8
  store i32 %1, ptr %6, align 4
  store i64 %2, ptr %7, align 8
  %8 = load ptr, ptr %5, align 8
  %9 = load i32, ptr %6, align 4
  %10 = load i64, ptr %7, align 8
  %11 = call i64 @pg_parameter_aclmask(ptr noundef %8, i32 noundef %9, i64 noundef %10, i32 noundef 1)
  %12 = icmp ne i64 %11, 0
  br i1 %12, label %13, label %14

13:                                               ; preds = %3
  store i32 0, ptr %4, align 4
  br label %15

14:                                               ; preds = %3
  store i32 1, ptr %4, align 4
  br label %15

15:                                               ; preds = %14, %13
  %16 = load i32, ptr %4, align 4
  ret i32 %16
}