; Function Attrs: nounwind uwtable
define dso_local range(i32 0, 2) i32 @pg_parameter_aclcheck(ptr noundef %0, i32 noundef %1, i64 noundef %2) local_unnamed_addr #0 {
  %4 = alloca i8, align 1
  %5 = tail call zeroext i1 @superuser_arg(i32 noundef %1) #9
  br i1 %5, label %pg_parameter_aclmask.exit, label %6

6:                                                ; preds = %3
  %7 = tail call ptr @convert_GUC_name_for_parameter_acl(ptr noundef %0) #9
  %8 = tail call ptr @cstring_to_text(ptr noundef %7) #9
  %9 = ptrtoint ptr %8 to i64
  %10 = tail call ptr @SearchSysCache1(i32 noundef 43, i64 noundef %9) #9
  %.not.i = icmp eq ptr %10, null
  br i1 %.not.i, label %24, label %11

11:                                               ; preds = %6
  call void @llvm.lifetime.start.p0(i64 1, ptr nonnull %4) #9
  %12 = call i64 @SysCacheGetAttr(i32 noundef 43, ptr noundef nonnull %10, i16 noundef signext 3, ptr noundef nonnull %4) #9
  %13 = load i8, ptr %4, align 1, !range !4, !noundef !5
  %14 = trunc nuw i8 %13 to i1
  br i1 %14, label %15, label %17

15:                                               ; preds = %11
  %16 = call ptr @acldefault(i32 noundef 27, i32 noundef 10) #9
  br label %20

17:                                               ; preds = %11
  %18 = inttoptr i64 %12 to ptr
  %19 = call ptr @pg_detoast_datum(ptr noundef %18) #9
  br label %20

20:                                               ; preds = %17, %15
  %.020.i = phi ptr [ null, %15 ], [ %18, %17 ]
  %.0.i = phi ptr [ %16, %15 ], [ %19, %17 ]
  %21 = call i64 @aclmask(ptr noundef %.0.i, i32 noundef %1, i32 noundef 10, i64 noundef %2, i32 noundef 1) #9
  %.not24.i = icmp eq ptr %.0.i, null
  %.not25.i = icmp eq ptr %.0.i, %.020.i
  %or.cond.i = or i1 %.not24.i, %.not25.i
  br i1 %or.cond.i, label %23, label %22

22:                                               ; preds = %20
  call void @pfree(ptr noundef nonnull %.0.i) #9
  br label %23

23:                                               ; preds = %22, %20
  call void @ReleaseSysCache(ptr noundef nonnull %10) #9
  call void @llvm.lifetime.end.p0(i64 1, ptr nonnull %4) #9
  br label %24

24:                                               ; preds = %23, %6
  %.022.i = phi i64 [ %21, %23 ], [ 0, %6 ]
  call void @pfree(ptr noundef %7) #9
  call void @pfree(ptr noundef %8) #9
  br label %pg_parameter_aclmask.exit

pg_parameter_aclmask.exit:                        ; preds = %3, %24
  %.021.i = phi i64 [ %.022.i, %24 ], [ %2, %3 ]
  %.not = icmp eq i64 %.021.i, 0
  %. = zext i1 %.not to i32
  ret i32 %.
}